; Function Attrs: mustprogress nofree norecurse nosync nounwind willreturn memory(argmem: read) uwtable
define noundef i32 @_ZN11duckdb_zstd23ZSTD_getDictID_fromDictEPKvm(ptr noundef readonly captures(none) %0, i64 noundef %1) local_unnamed_addr #8 {
  %3 = icmp ult i64 %1, 8
  br i1 %3, label %7, label %4

4:                                                ; preds = %2
  %.val3 = load i32, ptr %0, align 1, !tbaa !55
  %.not = icmp eq i32 %.val3, -332356553
  br i1 %.not, label %5, label %7

5:                                                ; preds = %4
  %6 = getelementptr inbounds nuw i8, ptr %0, i64 4
  %.val = load i32, ptr %6, align 1, !tbaa !55
  br label %7

7:                                                ; preds = %4, %2, %5
  %.0 = phi i32 [ %.val, %5 ], [ 0, %2 ], [ 0, %4 ]
  ret i32 %.0
}